target datalayout = "e-m:e-p270:32:32-p271:32:32-p272:64:64-i64:64-i128:128-f80:128-n8:16:32:64-S128"
target triple = "x86_64-pc-linux-gnu"

%struct.USystemParams = type { ptr, ptr, ptr, i32 }

; Function Attrs: mustprogress nounwind uwtable
define ptr @udbg_getSystemParameterNameByIndex(i32 noundef %0) #0 {
  %2 = alloca ptr, align 8
  %3 = alloca i32, align 4
  store i32 %0, ptr %3, align 4, !tbaa !14
  %4 = load i32, ptr %3, align 4, !tbaa !14
  %5 = icmp sge i32 %4, 0
  br i1 %5, label %6, label %15

6:                                                ; preds = %1
  %7 = load i32, ptr %3, align 4, !tbaa !14
  %8 = icmp slt i32 %7, 25
  br i1 %8, label %9, label %15

9:                                                ; preds = %6
  %10 = load i32, ptr %3, align 4, !tbaa !14
  %11 = sext i32 %10 to i64
  %12 = getelementptr inbounds [25 x %struct.USystemParams], ptr @_ZL12systemParams, i64 0, i64 %11
  %13 = getelementptr inbounds nuw %struct.USystemParams, ptr %12, i32 0, i32 0
  %14 = load ptr, ptr %13, align 16, !tbaa !40
  store ptr %14, ptr %2, align 8
  br label %16

15:                                               ; preds = %6, %1
  store ptr null, ptr %2, align 8
  br label %16

16:                                               ; preds = %15, %9
  %17 = load ptr, ptr %2, align 8
  ret ptr %17
}