; Function Attrs: mustprogress nofree norecurse nosync nounwind willreturn memory(none) uwtable
define ptr @udbg_getSystemParameterNameByIndex(i32 noundef %0) local_unnamed_addr #10 {
  %or.cond = icmp ult i32 %0, 25
  br i1 %or.cond, label %2, label %6

2:                                                ; preds = %1
  %3 = zext nneg i32 %0 to i64
  %4 = getelementptr inbounds nuw [25 x %struct.USystemParams], ptr @_ZL12systemParams, i64 0, i64 %3
  %5 = load ptr, ptr %4, align 16, !tbaa !26
  br label %6

6:                                                ; preds = %1, %2
  %.0 = phi ptr [ %5, %2 ], [ null, %1 ]
  ret ptr %.0
}